target datalayout = "e-m:e-p270:32:32-p271:32:32-p272:64:64-i64:64-i128:128-f80:128-n8:16:32:64-S128"
target triple = "x86_64-pc-linux-gnu"

%struct.passwd = type { ptr, ptr, i32, i32, ptr, ptr, ptr }

@.str.7 = private unnamed_addr constant [5 x i8] c"root\00", align 1

; Function Attrs: nounwind uwtable
define dso_local ptr @uid_to_string_or_null(i32 noundef %0) #0 {
  %2 = alloca ptr, align 8
  %3 = alloca i32, align 4
  %4 = alloca %struct.passwd, align 8
  %5 = alloca ptr, align 8
  %6 = alloca [65536 x i8], align 16
  %7 = alloca ptr, align 8
  %8 = alloca i64, align 8
  %9 = alloca ptr, align 8
  %10 = alloca ptr, align 8
  %11 = alloca i32, align 4
  store i32 %0, ptr %3, align 4
  call void @llvm.lifetime.start.p0(i64 48, ptr %4) #9
  call void @llvm.lifetime.start.p0(i64 8, ptr %5) #9
  call void @llvm.lifetime.start.p0(i64 65536, ptr %6) #9
  call void @llvm.lifetime.start.p0(i64 8, ptr %7) #9
  store ptr null, ptr %7, align 8
  call void @llvm.lifetime.start.p0(i64 8, ptr %8) #9
  store i64 65536, ptr %8, align 8
  call void @llvm.lifetime.start.p0(i64 8, ptr %9) #9
  %12 = getelementptr inbounds [65536 x i8], ptr %6, i64 0, i64 0
  store ptr %12, ptr %9, align 8
  call void @llvm.lifetime.start.p0(i64 8, ptr %10) #9
  store ptr null, ptr %10, align 8
  %13 = load i32, ptr %3, align 4
  %14 = icmp eq i32 %13, 0
  br i1 %14, label %15, label %17

15:                                               ; preds = %1
  %16 = call ptr @xstrdup(ptr noundef @.str.7)
  store ptr %16, ptr %2, align 8
  store i32 1, ptr %11, align 4
  br label %28

17:                                               ; preds = %1
  %18 = load i32, ptr %3, align 4
  call void @slurm_getpwuid_r(i32 noundef %18, ptr noundef %4, ptr noundef %9, ptr noundef %7, ptr noundef %8, ptr noundef %5)
  %19 = load ptr, ptr %5, align 8
  %20 = icmp ne ptr %19, null
  br i1 %20, label %21, label %26

21:                                               ; preds = %17
  %22 = load ptr, ptr %5, align 8
  %23 = getelementptr inbounds nuw %struct.passwd, ptr %22, i32 0, i32 0
  %24 = load ptr, ptr %23, align 8
  %25 = call ptr @xstrdup(ptr noundef %24)
  store ptr %25, ptr %10, align 8
  br label %26

26:                                               ; preds = %21, %17
  call void @slurm_xfree(ptr noundef %7)
  %27 = load ptr, ptr %10, align 8
  store ptr %27, ptr %2, align 8
  store i32 1, ptr %11, align 4
  br label %28

28:                                               ; preds = %26, %15
  call void @llvm.lifetime.end.p0(i64 8, ptr %10) #9
  call void @llvm.lifetime.end.p0(i64 8, ptr %9) #9
  call void @llvm.lifetime.end.p0(i64 8, ptr %8) #9
  call void @llvm.lifetime.end.p0(i64 8, ptr %7) #9
  call void @llvm.lifetime.end.p0(i64 65536, ptr %6) #9
  call void @llvm.lifetime.end.p0(i64 8, ptr %5) #9
  call void @llvm.lifetime.end.p0(i64 48, ptr %4) #9
  %29 = load ptr, ptr %2, align 8
  ret ptr %29
}