; Function Attrs: nounwind uwtable
define dso_local ptr @uid_to_string_or_null(i32 noundef %0) local_unnamed_addr #0 {
  %2 = alloca %struct.passwd, align 8
  %3 = alloca ptr, align 8
  %4 = alloca [65536 x i8], align 16
  %5 = alloca ptr, align 8
  %6 = alloca i64, align 8
  %7 = alloca ptr, align 8
  call void @llvm.lifetime.start.p0(i64 48, ptr nonnull %2) #10
  call void @llvm.lifetime.start.p0(i64 8, ptr nonnull %3) #10
  call void @llvm.lifetime.start.p0(i64 65536, ptr nonnull %4) #10
  call void @llvm.lifetime.start.p0(i64 8, ptr nonnull %5) #10
  store ptr null, ptr %5, align 8
  call void @llvm.lifetime.start.p0(i64 8, ptr nonnull %6) #10
  store i64 65536, ptr %6, align 8
  call void @llvm.lifetime.start.p0(i64 8, ptr nonnull %7) #10
  store ptr %4, ptr %7, align 8
  %8 = icmp eq i32 %0, 0
  br i1 %8, label %9, label %11

9:                                                ; preds = %1
  %10 = call ptr @xstrdup(ptr noundef nonnull @.str.7) #10
  br label %17

11:                                               ; preds = %1
  call void @slurm_getpwuid_r(i32 noundef %0, ptr noundef nonnull %2, ptr noundef nonnull %7, ptr noundef nonnull %5, ptr noundef nonnull %6, ptr noundef nonnull %3)
  %12 = load ptr, ptr %3, align 8
  %.not = icmp eq ptr %12, null
  br i1 %.not, label %16, label %13

13:                                               ; preds = %11
  %14 = load ptr, ptr %12, align 8
  %15 = call ptr @xstrdup(ptr noundef %14) #10
  br label %16

16:                                               ; preds = %13, %11
  %.0 = phi ptr [ %15, %13 ], [ null, %11 ]
  call void @slurm_xfree(ptr noundef nonnull %5) #10
  br label %17

17:                                               ; preds = %16, %9
  %.03 = phi ptr [ %10, %9 ], [ %.0, %16 ]
  call void @llvm.lifetime.end.p0(i64 8, ptr nonnull %7) #10
  call void @llvm.lifetime.end.p0(i64 8, ptr nonnull %6) #10
  call void @llvm.lifetime.end.p0(i64 8, ptr nonnull %5) #10
  call void @llvm.lifetime.end.p0(i64 65536, ptr nonnull %4) #10
  call void @llvm.lifetime.end.p0(i64 8, ptr nonnull %3) #10
  call void @llvm.lifetime.end.p0(i64 48, ptr nonnull %2) #10
  ret ptr %.03
}